target datalayout = "e-m:e-p270:32:32-p271:32:32-p272:64:64-i64:64-i128:128-f80:128-n8:16:32:64-S128"
target triple = "x86_64-pc-linux-gnu"

%"class.std::__cxx11::basic_string" = type { %"struct.std::__cxx11::basic_string<char>::_Alloc_hider", i64, %union.anon }
%"struct.std::__cxx11::basic_string<char>::_Alloc_hider" = type { ptr }
%union.anon = type { i64, [8 x i8] }
%"class.std::allocator" = type { i8 }
%"class.cv::Point_" = type { i32, i32 }
%"class.cv::Size_" = type { i32, i32 }
%"class.cv::Rect_" = type { i32, i32, i32, i32 }

@.str.22 = private unnamed_addr constant [53 x i8] c"anchor.inside(Rect(0, 0, ksize.width, ksize.height))\00", align 1
@__func__._ZN2cvL15normalizeAnchorENS_6Point_IiEENS_5Size_IiEE = private unnamed_addr constant [16 x i8] c"normalizeAnchor\00", align 1
@.str.23 = private unnamed_addr constant [128 x i8] c"generated/home/dtcxzyw/WorkSpace/Projects/compilers/llvm-opt-benchmark/bench/opencv/opencv/modules/imgproc/src/filterengine.hpp\00", align 1

; Function Attrs: mustprogress nounwind uwtable
define linkonce_odr hidden noundef zeroext i1 @_ZNK2cv5Rect_IiE8containsERKNS_6Point_IiEE(ptr noundef nonnull align 4 dereferenceable(16) %0, ptr noundef nonnull align 4 dereferenceable(8) %1) #6 comdat align 2 {
  %3 = alloca ptr, align 8
  %4 = alloca ptr, align 8
  store ptr %0, ptr %3, align 8
  store ptr %1, ptr %4, align 8
  %5 = load ptr, ptr %3, align 8
  %6 = getelementptr inbounds %"class.cv::Rect_", ptr %5, i32 0, i32 0
  %7 = load i32, ptr %6, align 4
  %8 = load ptr, ptr %4, align 8
  %9 = getelementptr inbounds %"class.cv::Point_", ptr %8, i32 0, i32 0
  %10 = load i32, ptr %9, align 4
  %11 = icmp sle i32 %7, %10
  br i1 %11, label %12, label %39

12:                                               ; preds = %2
  %13 = load ptr, ptr %4, align 8
  %14 = getelementptr inbounds %"class.cv::Point_", ptr %13, i32 0, i32 0
  %15 = load i32, ptr %14, align 4
  %16 = getelementptr inbounds %"class.cv::Rect_", ptr %5, i32 0, i32 0
  %17 = load i32, ptr %16, align 4
  %18 = getelementptr inbounds %"class.cv::Rect_", ptr %5, i32 0, i32 2
  %19 = load i32, ptr %18, align 4
  %20 = add nsw i32 %17, %19
  %21 = icmp slt i32 %15, %20
  br i1 %21, label %22, label %39

22:                                               ; preds = %12
  %23 = getelementptr inbounds %"class.cv::Rect_", ptr %5, i32 0, i32 1
  %24 = load i32, ptr %23, align 4
  %25 = load ptr, ptr %4, align 8
  %26 = getelementptr inbounds %"class.cv::Point_", ptr %25, i32 0, i32 1
  %27 = load i32, ptr %26, align 4
  %28 = icmp sle i32 %24, %27
  br i1 %28, label %29, label %39

29:                                               ; preds = %22
  %30 = load ptr, ptr %4, align 8
  %31 = getelementptr inbounds %"class.cv::Point_", ptr %30, i32 0, i32 1
  %32 = load i32, ptr %31, align 4
  %33 = getelementptr inbounds %"class.cv::Rect_", ptr %5, i32 0, i32 1
  %34 = load i32, ptr %33, align 4
  %35 = getelementptr inbounds %"class.cv::Rect_", ptr %5, i32 0, i32 3
  %36 = load i32, ptr %35, align 4
  %37 = add nsw i32 %34, %36
  %38 = icmp slt i32 %32, %37
  br label %39

39:                                               ; preds = %29, %22, %12, %2
  %40 = phi i1 [ false, %22 ], [ false, %12 ], [ false, %2 ], [ %38, %29 ]
  ret i1 %40
}

; Function Attrs: mustprogress uwtable
define linkonce_odr hidden noundef zeroext i1 @_ZNK2cv6Point_IiE6insideERKNS_5Rect_IiEE(ptr noundef nonnull align 4 dereferenceable(8) %0, ptr noundef nonnull align 4 dereferenceable(16) %1) #4 comdat align 2 {
  %3 = alloca ptr, align 8
  %4 = alloca ptr, align 8
  store ptr %0, ptr %3, align 8
  store ptr %1, ptr %4, align 8
  %5 = load ptr, ptr %3, align 8
  %6 = load ptr, ptr %4, align 8
  %7 = call noundef zeroext i1 @_ZNK2cv5Rect_IiE8containsERKNS_6Point_IiEE(ptr noundef nonnull align 4 dereferenceable(16) %6, ptr noundef nonnull align 4 dereferenceable(8) %5)
  ret i1 %7
}

; Function Attrs: mustprogress nounwind uwtable
define linkonce_odr hidden void @_ZN2cv5Rect_IiEC2Eiiii(ptr noundef nonnull align 4 dereferenceable(16) %0, i32 noundef %1, i32 noundef %2, i32 noundef %3, i32 noundef %4) unnamed_addr #6 comdat align 2 {
  %6 = alloca ptr, align 8
  %7 = alloca i32, align 4
  %8 = alloca i32, align 4
  %9 = alloca i32, align 4
  %10 = alloca i32, align 4
  store ptr %0, ptr %6, align 8
  store i32 %1, ptr %7, align 4
  store i32 %2, ptr %8, align 4
  store i32 %3, ptr %9, align 4
  store i32 %4, ptr %10, align 4
  %11 = load ptr, ptr %6, align 8
  %12 = getelementptr inbounds %"class.cv::Rect_", ptr %11, i32 0, i32 0
  %13 = load i32, ptr %7, align 4
  store i32 %13, ptr %12, align 4
  %14 = getelementptr inbounds %"class.cv::Rect_", ptr %11, i32 0, i32 1
  %15 = load i32, ptr %8, align 4
  store i32 %15, ptr %14, align 4
  %16 = getelementptr inbounds %"class.cv::Rect_", ptr %11, i32 0, i32 2
  %17 = load i32, ptr %9, align 4
  store i32 %17, ptr %16, align 4
  %18 = getelementptr inbounds %"class.cv::Rect_", ptr %11, i32 0, i32 3
  %19 = load i32, ptr %10, align 4
  store i32 %19, ptr %18, align 4
  ret void
}

; Function Attrs: mustprogress uwtable
define internal i64 @_ZN2cvL15normalizeAnchorENS_6Point_IiEENS_5Size_IiEE(i64 %0, i64 %1) #4 personality ptr @__gxx_personality_v0 {
  %3 = alloca %"class.cv::Point_", align 4
  %4 = alloca %"class.cv::Point_", align 4
  %5 = alloca %"class.cv::Size_", align 4
  %6 = alloca %"class.cv::Rect_", align 4
  %7 = alloca %"class.std::__cxx11::basic_string", align 8
  %8 = alloca %"class.std::allocator", align 1
  %9 = alloca ptr, align 8
  %10 = alloca i32, align 4
  store i64 %0, ptr %4, align 4
  store i64 %1, ptr %5, align 4
  %11 = getelementptr inbounds %"class.cv::Point_", ptr %4, i32 0, i32 0
  %12 = load i32, ptr %11, align 4
  %13 = icmp eq i32 %12, -1
  br i1 %13, label %14, label %19

14:                                               ; preds = %2
  %15 = getelementptr inbounds %"class.cv::Size_", ptr %5, i32 0, i32 0
  %16 = load i32, ptr %15, align 4
  %17 = sdiv i32 %16, 2
  %18 = getelementptr inbounds %"class.cv::Point_", ptr %4, i32 0, i32 0
  store i32 %17, ptr %18, align 4
  br label %19

19:                                               ; preds = %14, %2
  %20 = getelementptr inbounds %"class.cv::Point_", ptr %4, i32 0, i32 1
  %21 = load i32, ptr %20, align 4
  %22 = icmp eq i32 %21, -1
  br i1 %22, label %23, label %28

23:                                               ; preds = %19
  %24 = getelementptr inbounds %"class.cv::Size_", ptr %5, i32 0, i32 1
  %25 = load i32, ptr %24, align 4
  %26 = sdiv i32 %25, 2
  %27 = getelementptr inbounds %"class.cv::Point_", ptr %4, i32 0, i32 1
  store i32 %26, ptr %27, align 4
  br label %28

28:                                               ; preds = %23, %19
  br label %29

29:                                               ; preds = %28
  %30 = getelementptr inbounds %"class.cv::Size_", ptr %5, i32 0, i32 0
  %31 = load i32, ptr %30, align 4
  %32 = getelementptr inbounds %"class.cv::Size_", ptr %5, i32 0, i32 1
  %33 = load i32, ptr %32, align 4
  call void @_ZN2cv5Rect_IiEC2Eiiii(ptr noundef nonnull align 4 dereferenceable(16) %6, i32 noundef 0, i32 noundef 0, i32 noundef %31, i32 noundef %33)
  %34 = call noundef zeroext i1 @_ZNK2cv6Point_IiE6insideERKNS_5Rect_IiEE(ptr noundef nonnull align 4 dereferenceable(8) %4, ptr noundef nonnull align 4 dereferenceable(16) %6)
  %35 = xor i1 %34, true
  %36 = xor i1 %35, true
  br i1 %36, label %37, label %38

37:                                               ; preds = %29
  br label %50

38:                                               ; preds = %29
  call void @_ZNSaIcEC1Ev(ptr noundef nonnull align 1 dereferenceable(1) %8) #3
  invoke void @_ZNSt7__cxx1112basic_stringIcSt11char_traitsIcESaIcEEC1EPKcRKS3_(ptr noundef nonnull align 8 dereferenceable(32) %7, ptr noundef @.str.22, ptr noundef nonnull align 1 dereferenceable(1) %8)
          to label %39 unwind label %41

39:                                               ; preds = %38
  invoke void @_ZN2cv5errorEiRKNSt7__cxx1112basic_stringIcSt11char_traitsIcESaIcEEEPKcS9_i(i32 noundef -215, ptr noundef nonnull align 8 dereferenceable(32) %7, ptr noundef @__func__._ZN2cvL15normalizeAnchorENS_6Point_IiEENS_5Size_IiEE, ptr noundef @.str.23, i32 noundef 367) #15
          to label %40 unwind label %45

40:                                               ; preds = %39
  unreachable

41:                                               ; preds = %38
  %42 = landingpad { ptr, i32 }
          cleanup
  %43 = extractvalue { ptr, i32 } %42, 0
  store ptr %43, ptr %9, align 8
  %44 = extractvalue { ptr, i32 } %42, 1
  store i32 %44, ptr %10, align 4
  br label %49

45:                                               ; preds = %39
  %46 = landingpad { ptr, i32 }
          cleanup
  %47 = extractvalue { ptr, i32 } %46, 0
  store ptr %47, ptr %9, align 8
  %48 = extractvalue { ptr, i32 } %46, 1
  store i32 %48, ptr %10, align 4
  call void @_ZNSt7__cxx1112basic_stringIcSt11char_traitsIcESaIcEED1Ev(ptr noundef nonnull align 8 dereferenceable(32) %7) #3
  br label %49

49:                                               ; preds = %45, %41
  call void @_ZNSaIcED1Ev(ptr noundef nonnull align 1 dereferenceable(1) %8) #3
  br label %53

50:                                               ; preds = %37
  br label %51

51:                                               ; preds = %50
  call void @llvm.memcpy.p0.p0.i64(ptr align 4 %3, ptr align 4 %4, i64 8, i1 false)
  %52 = load i64, ptr %3, align 4
  ret i64 %52

53:                                               ; preds = %49
  %54 = load ptr, ptr %9, align 8
  %55 = load i32, ptr %10, align 4
  %56 = insertvalue { ptr, i32 } poison, ptr %54, 0
  %57 = insertvalue { ptr, i32 } %56, i32 %55, 1
  resume { ptr, i32 } %57
}